(dp0
S'netowrk'
p1
(lp2
I255
aI165
aI60
asS'hdmi'
p3
(lp4
I255
aI255
aI255
asS'credits'
p5
(lp6
I255
aI165
aI60
asS'led_color'
p7
(lp8
I5
aI135
aI255
asS'name_layout'
p9
I31
sS'name_text'
p10
(lp11
I255
aI255
aI255
asS'background_color'
p12
I6
s.